target datalayout = "e-m:e-p270:32:32-p271:32:32-p272:64:64-i64:64-i128:128-f80:128-n8:16:32:64-S128"
target triple = "x86_64-pc-linux-gnu"

%"struct.faiss::IndexFlatCodes" = type { %"struct.faiss::Index.base", i64, %"class.std::vector" }
%"struct.faiss::Index.base" = type <{ ptr, i32, [4 x i8], i64, i8, i8, [2 x i8], i32, float }>
%"class.std::vector" = type { %"struct.std::_Vector_base" }
%"struct.std::_Vector_base" = type { %"struct.std::_Vector_base<unsigned char, std::allocator<unsigned char>>::_Vector_impl" }
%"struct.std::_Vector_base<unsigned char, std::allocator<unsigned char>>::_Vector_impl" = type { %"struct.std::_Vector_base<unsigned char, std::allocator<unsigned char>>::_Vector_impl_data" }
%"struct.std::_Vector_base<unsigned char, std::allocator<unsigned char>>::_Vector_impl_data" = type { ptr, ptr, ptr }
%"struct.faiss::Index" = type <{ ptr, i32, [4 x i8], i64, i8, i8, [2 x i8], i32, float, [4 x i8] }>
%"struct.faiss::IndexFlatL2" = type { %"struct.faiss::IndexFlat", %"class.std::vector.4" }
%"struct.faiss::IndexFlat" = type { %"struct.faiss::IndexFlatCodes" }
%"class.std::vector.4" = type { %"struct.std::_Vector_base.5" }
%"struct.std::_Vector_base.5" = type { %"struct.std::_Vector_base<float, std::allocator<float>>::_Vector_impl" }
%"struct.std::_Vector_base<float, std::allocator<float>>::_Vector_impl" = type { %"struct.std::_Vector_base<float, std::allocator<float>>::_Vector_impl_data" }
%"struct.std::_Vector_base<float, std::allocator<float>>::_Vector_impl_data" = type { ptr, ptr, ptr }
%"struct.faiss::FlatCodesDistanceComputer" = type { %"struct.faiss::DistanceComputer", ptr, i64 }
%"struct.faiss::DistanceComputer" = type { ptr }
%"class.__gnu_cxx::__normal_iterator.9" = type { ptr }
%"struct.faiss::(anonymous namespace)::FlatL2WithNormsDis" = type <{ %"struct.faiss::FlatCodesDistanceComputer", i64, i64, ptr, ptr, i64, ptr, float, [4 x i8] }>

; Function Attrs: mustprogress nounwind uwtable
define linkonce_odr noundef ptr @_ZNKSt6vectorIfSaIfEE11_M_data_ptrIfEEPT_S4_(ptr noundef nonnull align 8 dereferenceable(24) %0, ptr noundef %1) #3 comdat align 2 {
  %3 = alloca ptr, align 8
  %4 = alloca ptr, align 8
  store ptr %0, ptr %3, align 8, !tbaa !124
  store ptr %1, ptr %4, align 8, !tbaa !15
  %5 = load ptr, ptr %4, align 8, !tbaa !15
  ret ptr %5
}

; Function Attrs: inlinehint mustprogress nounwind uwtable
define linkonce_odr void @_ZN5faiss16DistanceComputerC2Ev(ptr noundef nonnull align 8 dereferenceable(8) %0) unnamed_addr #0 comdat align 2 {
  %2 = alloca ptr, align 8
  store ptr %0, ptr %2, align 8, !tbaa !122
  %3 = load ptr, ptr %2, align 8
  store ptr getelementptr inbounds inrange(-16, 48) ({ [8 x ptr] }, ptr @_ZTVN5faiss16DistanceComputerE, i32 0, i32 0, i32 2), ptr %3, align 8, !tbaa !9
  ret void
}

; Function Attrs: mustprogress nounwind uwtable
define linkonce_odr noundef ptr @_ZNKSt6vectorIhSaIhEE11_M_data_ptrIhEEPT_S4_(ptr noundef nonnull align 8 dereferenceable(24) %0, ptr noundef %1) #3 comdat align 2 {
  %3 = alloca ptr, align 8
  %4 = alloca ptr, align 8
  store ptr %0, ptr %3, align 8, !tbaa !91
  store ptr %1, ptr %4, align 8, !tbaa !55
  %5 = load ptr, ptr %4, align 8, !tbaa !55
  ret ptr %5
}

; Function Attrs: mustprogress nounwind uwtable
define linkonce_odr noundef nonnull align 8 dereferenceable(8) ptr @_ZNK9__gnu_cxx17__normal_iteratorIPKfSt6vectorIfSaIfEEE4baseEv(ptr noundef nonnull align 8 dereferenceable(8) %0) #3 comdat align 2 {
  %2 = alloca ptr, align 8
  store ptr %0, ptr %2, align 8, !tbaa !162
  %3 = load ptr, ptr %2, align 8
  %4 = getelementptr inbounds nuw %"class.__gnu_cxx::__normal_iterator.9", ptr %3, i32 0, i32 0
  ret ptr %4
}

; Function Attrs: mustprogress nounwind uwtable
define linkonce_odr void @_ZN9__gnu_cxx17__normal_iteratorIPKfSt6vectorIfSaIfEEEC2ERKS2_(ptr noundef nonnull align 8 dereferenceable(8) %0, ptr noundef nonnull align 8 dereferenceable(8) %1) unnamed_addr #3 comdat align 2 {
  %3 = alloca ptr, align 8
  %4 = alloca ptr, align 8
  store ptr %0, ptr %3, align 8, !tbaa !162
  store ptr %1, ptr %4, align 8, !tbaa !136
  %5 = load ptr, ptr %3, align 8
  %6 = getelementptr inbounds nuw %"class.__gnu_cxx::__normal_iterator.9", ptr %5, i32 0, i32 0
  %7 = load ptr, ptr %4, align 8, !tbaa !136
  %8 = load ptr, ptr %7, align 8, !tbaa !15
  store ptr %8, ptr %6, align 8, !tbaa !164
  ret void
}

; Function Attrs: mustprogress nounwind uwtable
define linkonce_odr noundef ptr @_ZNKSt6vectorIfSaIfEE4dataEv(ptr noundef nonnull align 8 dereferenceable(24) %0) #3 comdat align 2 {
  %2 = alloca ptr, align 8
  store ptr %0, ptr %2, align 8, !tbaa !124
  %3 = load ptr, ptr %2, align 8
  %4 = getelementptr inbounds nuw %"struct.std::_Vector_base.5", ptr %3, i32 0, i32 0
  %5 = getelementptr inbounds nuw %"struct.std::_Vector_base<float, std::allocator<float>>::_Vector_impl_data", ptr %4, i32 0, i32 0
  %6 = load ptr, ptr %5, align 8, !tbaa !126
  %7 = call noundef ptr @_ZNKSt6vectorIfSaIfEE11_M_data_ptrIfEEPT_S4_(ptr noundef nonnull align 8 dereferenceable(24) %3, ptr noundef %6) #18
  ret ptr %7
}

; Function Attrs: mustprogress nounwind uwtable
define linkonce_odr noundef ptr @_ZNK5faiss9IndexFlat6get_xbEv(ptr noundef nonnull align 8 dereferenceable(72) %0) #3 comdat align 2 {
  %2 = alloca ptr, align 8
  store ptr %0, ptr %2, align 8, !tbaa !11
  %3 = load ptr, ptr %2, align 8
  %4 = getelementptr inbounds nuw %"struct.faiss::IndexFlatCodes", ptr %3, i32 0, i32 2
  %5 = call noundef ptr @_ZNKSt6vectorIhSaIhEE4dataEv(ptr noundef nonnull align 8 dereferenceable(24) %4) #18
  ret ptr %5
}

; Function Attrs: mustprogress nounwind uwtable
define linkonce_odr void @_ZN5faiss25FlatCodesDistanceComputerC2EPKhm(ptr noundef nonnull align 8 dereferenceable(24) %0, ptr noundef %1, i64 noundef %2) unnamed_addr #3 comdat align 2 {
  %4 = alloca ptr, align 8
  %5 = alloca ptr, align 8
  %6 = alloca i64, align 8
  store ptr %0, ptr %4, align 8, !tbaa !118
  store ptr %1, ptr %5, align 8, !tbaa !55
  store i64 %2, ptr %6, align 8, !tbaa !13
  %7 = load ptr, ptr %4, align 8
  call void @_ZN5faiss16DistanceComputerC2Ev(ptr noundef nonnull align 8 dereferenceable(8) %7) #18
  store ptr getelementptr inbounds inrange(-16, 56) ({ [9 x ptr] }, ptr @_ZTVN5faiss25FlatCodesDistanceComputerE, i32 0, i32 0, i32 2), ptr %7, align 8, !tbaa !9
  %8 = getelementptr inbounds nuw %"struct.faiss::FlatCodesDistanceComputer", ptr %7, i32 0, i32 1
  %9 = load ptr, ptr %5, align 8, !tbaa !55
  store ptr %9, ptr %8, align 8, !tbaa !120
  %10 = getelementptr inbounds nuw %"struct.faiss::FlatCodesDistanceComputer", ptr %7, i32 0, i32 2
  %11 = load i64, ptr %6, align 8, !tbaa !13
  store i64 %11, ptr %10, align 8, !tbaa !121
  ret void
}

; Function Attrs: mustprogress nounwind uwtable
define linkonce_odr noundef ptr @_ZNKSt6vectorIhSaIhEE4dataEv(ptr noundef nonnull align 8 dereferenceable(24) %0) #3 comdat align 2 {
  %2 = alloca ptr, align 8
  store ptr %0, ptr %2, align 8, !tbaa !91
  %3 = load ptr, ptr %2, align 8
  %4 = getelementptr inbounds nuw %"struct.std::_Vector_base", ptr %3, i32 0, i32 0
  %5 = getelementptr inbounds nuw %"struct.std::_Vector_base<unsigned char, std::allocator<unsigned char>>::_Vector_impl_data", ptr %4, i32 0, i32 0
  %6 = load ptr, ptr %5, align 8, !tbaa !93
  %7 = call noundef ptr @_ZNKSt6vectorIhSaIhEE11_M_data_ptrIhEEPT_S4_(ptr noundef nonnull align 8 dereferenceable(24) %3, ptr noundef %6) #18
  ret ptr %7
}

; Function Attrs: inlinehint mustprogress nounwind uwtable
define linkonce_odr noundef zeroext i1 @_ZN9__gnu_cxxeqIPKfSt6vectorIfSaIfEEEEbRKNS_17__normal_iteratorIT_T0_EESB_(ptr noundef nonnull align 8 dereferenceable(8) %0, ptr noundef nonnull align 8 dereferenceable(8) %1) #0 comdat {
  %3 = alloca ptr, align 8
  %4 = alloca ptr, align 8
  store ptr %0, ptr %3, align 8, !tbaa !162
  store ptr %1, ptr %4, align 8, !tbaa !162
  %5 = load ptr, ptr %3, align 8, !tbaa !162
  %6 = call noundef nonnull align 8 dereferenceable(8) ptr @_ZNK9__gnu_cxx17__normal_iteratorIPKfSt6vectorIfSaIfEEE4baseEv(ptr noundef nonnull align 8 dereferenceable(8) %5) #18
  %7 = load ptr, ptr %6, align 8, !tbaa !15
  %8 = load ptr, ptr %4, align 8, !tbaa !162
  %9 = call noundef nonnull align 8 dereferenceable(8) ptr @_ZNK9__gnu_cxx17__normal_iteratorIPKfSt6vectorIfSaIfEEE4baseEv(ptr noundef nonnull align 8 dereferenceable(8) %8) #18
  %10 = load ptr, ptr %9, align 8, !tbaa !15
  %11 = icmp eq ptr %7, %10
  ret i1 %11
}

; Function Attrs: mustprogress nounwind uwtable
define linkonce_odr ptr @_ZNKSt6vectorIfSaIfEE3endEv(ptr noundef nonnull align 8 dereferenceable(24) %0) #3 comdat align 2 {
  %2 = alloca %"class.__gnu_cxx::__normal_iterator.9", align 8
  %3 = alloca ptr, align 8
  store ptr %0, ptr %3, align 8, !tbaa !124
  %4 = load ptr, ptr %3, align 8
  %5 = getelementptr inbounds nuw %"struct.std::_Vector_base.5", ptr %4, i32 0, i32 0
  %6 = getelementptr inbounds nuw %"struct.std::_Vector_base<float, std::allocator<float>>::_Vector_impl_data", ptr %5, i32 0, i32 1
  call void @_ZN9__gnu_cxx17__normal_iteratorIPKfSt6vectorIfSaIfEEEC2ERKS2_(ptr noundef nonnull align 8 dereferenceable(8) %2, ptr noundef nonnull align 8 dereferenceable(8) %6) #18
  %7 = getelementptr inbounds nuw %"class.__gnu_cxx::__normal_iterator.9", ptr %2, i32 0, i32 0
  %8 = load ptr, ptr %7, align 8
  ret ptr %8
}

; Function Attrs: mustprogress nounwind uwtable
define linkonce_odr ptr @_ZNKSt6vectorIfSaIfEE5beginEv(ptr noundef nonnull align 8 dereferenceable(24) %0) #3 comdat align 2 {
  %2 = alloca %"class.__gnu_cxx::__normal_iterator.9", align 8
  %3 = alloca ptr, align 8
  store ptr %0, ptr %3, align 8, !tbaa !124
  %4 = load ptr, ptr %3, align 8
  %5 = getelementptr inbounds nuw %"struct.std::_Vector_base.5", ptr %4, i32 0, i32 0
  %6 = getelementptr inbounds nuw %"struct.std::_Vector_base<float, std::allocator<float>>::_Vector_impl_data", ptr %5, i32 0, i32 0
  call void @_ZN9__gnu_cxx17__normal_iteratorIPKfSt6vectorIfSaIfEEEC2ERKS2_(ptr noundef nonnull align 8 dereferenceable(8) %2, ptr noundef nonnull align 8 dereferenceable(8) %6) #18
  %7 = getelementptr inbounds nuw %"class.__gnu_cxx::__normal_iterator.9", ptr %2, i32 0, i32 0
  %8 = load ptr, ptr %7, align 8
  ret ptr %8
}

; Function Attrs: mustprogress nounwind uwtable
define internal void @_ZN5faiss12_GLOBAL__N_118FlatL2WithNormsDisC2ERKNS_11IndexFlatL2EPKf(ptr noundef nonnull align 8 dereferenceable(76) %0, ptr noundef nonnull align 8 dereferenceable(96) %1, ptr noundef %2) unnamed_addr #3 align 2 {
  %4 = alloca ptr, align 8
  %5 = alloca ptr, align 8
  %6 = alloca ptr, align 8
  store ptr %0, ptr %4, align 8, !tbaa !152
  store ptr %1, ptr %5, align 8, !tbaa !56
  store ptr %2, ptr %6, align 8, !tbaa !15
  %7 = load ptr, ptr %4, align 8
  %8 = load ptr, ptr %5, align 8, !tbaa !56
  %9 = getelementptr inbounds nuw %"struct.faiss::IndexFlatCodes", ptr %8, i32 0, i32 2
  %10 = call noundef ptr @_ZNKSt6vectorIhSaIhEE4dataEv(ptr noundef nonnull align 8 dereferenceable(24) %9) #18
  %11 = load ptr, ptr %5, align 8, !tbaa !56
  %12 = getelementptr inbounds nuw %"struct.faiss::IndexFlatCodes", ptr %11, i32 0, i32 1
  %13 = load i64, ptr %12, align 8, !tbaa !48
  call void @_ZN5faiss25FlatCodesDistanceComputerC2EPKhm(ptr noundef nonnull align 8 dereferenceable(24) %7, ptr noundef %10, i64 noundef %13)
  store ptr getelementptr inbounds inrange(-16, 56) ({ [9 x ptr] }, ptr @_ZTVN5faiss12_GLOBAL__N_118FlatL2WithNormsDisE, i32 0, i32 0, i32 2), ptr %7, align 8, !tbaa !9
  %14 = getelementptr inbounds nuw %"struct.faiss::(anonymous namespace)::FlatL2WithNormsDis", ptr %7, i32 0, i32 1
  %15 = load ptr, ptr %5, align 8, !tbaa !56
  %16 = getelementptr inbounds nuw %"struct.faiss::Index", ptr %15, i32 0, i32 1
  %17 = load i32, ptr %16, align 8, !tbaa !37
  %18 = sext i32 %17 to i64
  store i64 %18, ptr %14, align 8, !tbaa !154
  %19 = getelementptr inbounds nuw %"struct.faiss::(anonymous namespace)::FlatL2WithNormsDis", ptr %7, i32 0, i32 2
  %20 = load ptr, ptr %5, align 8, !tbaa !56
  %21 = getelementptr inbounds nuw %"struct.faiss::Index", ptr %20, i32 0, i32 3
  %22 = load i64, ptr %21, align 8, !tbaa !38
  store i64 %22, ptr %19, align 8, !tbaa !156
  %23 = getelementptr inbounds nuw %"struct.faiss::(anonymous namespace)::FlatL2WithNormsDis", ptr %7, i32 0, i32 3
  %24 = load ptr, ptr %6, align 8, !tbaa !15
  store ptr %24, ptr %23, align 8, !tbaa !157
  %25 = getelementptr inbounds nuw %"struct.faiss::(anonymous namespace)::FlatL2WithNormsDis", ptr %7, i32 0, i32 4
  %26 = load ptr, ptr %5, align 8, !tbaa !56
  %27 = call noundef ptr @_ZNK5faiss9IndexFlat6get_xbEv(ptr noundef nonnull align 8 dereferenceable(72) %26)
  store ptr %27, ptr %25, align 8, !tbaa !158
  %28 = getelementptr inbounds nuw %"struct.faiss::(anonymous namespace)::FlatL2WithNormsDis", ptr %7, i32 0, i32 5
  store i64 0, ptr %28, align 8, !tbaa !159
  %29 = getelementptr inbounds nuw %"struct.faiss::(anonymous namespace)::FlatL2WithNormsDis", ptr %7, i32 0, i32 6
  %30 = load ptr, ptr %5, align 8, !tbaa !56
  %31 = getelementptr inbounds nuw %"struct.faiss::IndexFlatL2", ptr %30, i32 0, i32 1
  %32 = call noundef ptr @_ZNKSt6vectorIfSaIfEE4dataEv(ptr noundef nonnull align 8 dereferenceable(24) %31) #18
  store ptr %32, ptr %29, align 8, !tbaa !160
  %33 = getelementptr inbounds nuw %"struct.faiss::(anonymous namespace)::FlatL2WithNormsDis", ptr %7, i32 0, i32 7
  store float 0.000000e+00, ptr %33, align 8, !tbaa !161
  ret void
}

; Function Attrs: mustprogress nounwind uwtable
define linkonce_odr noundef zeroext i1 @_ZNKSt6vectorIfSaIfEE5emptyEv(ptr noundef nonnull align 8 dereferenceable(24) %0) #3 comdat align 2 {
  %2 = alloca ptr, align 8
  %3 = alloca %"class.__gnu_cxx::__normal_iterator.9", align 8
  %4 = alloca %"class.__gnu_cxx::__normal_iterator.9", align 8
  store ptr %0, ptr %2, align 8, !tbaa !124
  %5 = load ptr, ptr %2, align 8
  call void @llvm.lifetime.start.p0(i64 8, ptr %3) #18
  %6 = call ptr @_ZNKSt6vectorIfSaIfEE5beginEv(ptr noundef nonnull align 8 dereferenceable(24) %5) #18
  %7 = getelementptr inbounds nuw %"class.__gnu_cxx::__normal_iterator.9", ptr %3, i32 0, i32 0
  store ptr %6, ptr %7, align 8
  call void @llvm.lifetime.start.p0(i64 8, ptr %4) #18
  %8 = call ptr @_ZNKSt6vectorIfSaIfEE3endEv(ptr noundef nonnull align 8 dereferenceable(24) %5) #18
  %9 = getelementptr inbounds nuw %"class.__gnu_cxx::__normal_iterator.9", ptr %4, i32 0, i32 0
  store ptr %8, ptr %9, align 8
  %10 = call noundef zeroext i1 @_ZN9__gnu_cxxeqIPKfSt6vectorIfSaIfEEEEbRKNS_17__normal_iteratorIT_T0_EESB_(ptr noundef nonnull align 8 dereferenceable(8) %3, ptr noundef nonnull align 8 dereferenceable(8) %4) #18
  call void @llvm.lifetime.end.p0(i64 8, ptr %4) #18
  call void @llvm.lifetime.end.p0(i64 8, ptr %3) #18
  ret i1 %10
}

; Function Attrs: mustprogress uwtable
define noundef ptr @_ZNK5faiss11IndexFlatL229get_FlatCodesDistanceComputerEv(ptr noundef nonnull align 8 dereferenceable(96) %0) unnamed_addr #2 align 2 personality ptr @__gxx_personality_v0 {
  %2 = alloca ptr, align 8
  %3 = alloca ptr, align 8
  %4 = alloca ptr, align 8
  %5 = alloca i32, align 4
  store ptr %0, ptr %3, align 8, !tbaa !56
  %6 = load ptr, ptr %3, align 8
  %7 = getelementptr inbounds nuw %"struct.faiss::Index", ptr %6, i32 0, i32 7
  %8 = load i32, ptr %7, align 4, !tbaa !27
  %9 = icmp eq i32 %8, 1
  br i1 %9, label %10, label %21

10:                                               ; preds = %1
  %11 = getelementptr inbounds nuw %"struct.faiss::IndexFlatL2", ptr %6, i32 0, i32 1
  %12 = call noundef zeroext i1 @_ZNKSt6vectorIfSaIfEE5emptyEv(ptr noundef nonnull align 8 dereferenceable(24) %11) #18
  br i1 %12, label %20, label %13

13:                                               ; preds = %10
  %14 = call noalias noundef nonnull ptr @_Znwm(i64 noundef 80) #21
  invoke void @_ZN5faiss12_GLOBAL__N_118FlatL2WithNormsDisC2ERKNS_11IndexFlatL2EPKf(ptr noundef nonnull align 8 dereferenceable(76) %14, ptr noundef nonnull align 8 dereferenceable(96) %6, ptr noundef null)
          to label %15 unwind label %16

15:                                               ; preds = %13
  store ptr %14, ptr %2, align 8
  br label %23

16:                                               ; preds = %13
  %17 = landingpad { ptr, i32 }
          cleanup
  %18 = extractvalue { ptr, i32 } %17, 0
  store ptr %18, ptr %4, align 8
  %19 = extractvalue { ptr, i32 } %17, 1
  store i32 %19, ptr %5, align 4
  call void @_ZdlPvm(ptr noundef %14, i64 noundef 80) #19
  br label %25

20:                                               ; preds = %10
  br label %21

21:                                               ; preds = %20, %1
  %22 = call noundef ptr @_ZNK5faiss9IndexFlat29get_FlatCodesDistanceComputerEv(ptr noundef nonnull align 8 dereferenceable(72) %6)
  store ptr %22, ptr %2, align 8
  br label %23

23:                                               ; preds = %21, %15
  %24 = load ptr, ptr %2, align 8
  ret ptr %24

25:                                               ; preds = %16
  %26 = load ptr, ptr %4, align 8
  %27 = load i32, ptr %5, align 4
  %28 = insertvalue { ptr, i32 } poison, ptr %26, 0
  %29 = insertvalue { ptr, i32 } %28, i32 %27, 1
  resume { ptr, i32 } %29
}