; Function Attrs: mustprogress uwtable
define noundef ptr @_ZNK5faiss11IndexFlatL229get_FlatCodesDistanceComputerEv(ptr noundef nonnull readonly align 8 captures(none) dereferenceable(96) %0) unnamed_addr #2 align 2 personality ptr @__gxx_personality_v0 {
  %2 = getelementptr inbounds nuw i8, ptr %0, i64 28
  %3 = load i32, ptr %2, align 4, !tbaa !23
  %4 = icmp eq i32 %3, 1
  br i1 %4, label %5, label %31

5:                                                ; preds = %1
  %6 = getelementptr inbounds nuw i8, ptr %0, i64 72
  %7 = load ptr, ptr %6, align 8, !tbaa !68
  %8 = getelementptr inbounds nuw i8, ptr %0, i64 80
  %9 = load ptr, ptr %8, align 8, !tbaa !68
  %10 = icmp eq ptr %7, %9
  br i1 %10, label %31, label %11

11:                                               ; preds = %5
  %12 = tail call noalias noundef nonnull dereferenceable(80) ptr @_Znwm(i64 noundef 80) #27
  %13 = getelementptr inbounds nuw i8, ptr %0, i64 48
  %14 = load ptr, ptr %13, align 8, !tbaa !7
  %15 = getelementptr inbounds nuw i8, ptr %0, i64 40
  %16 = load i64, ptr %15, align 8, !tbaa !44
  %17 = getelementptr inbounds nuw i8, ptr %12, i64 8
  store ptr %14, ptr %17, align 8, !tbaa !49
  %18 = getelementptr inbounds nuw i8, ptr %12, i64 16
  store i64 %16, ptr %18, align 8, !tbaa !52
  store ptr getelementptr inbounds nuw inrange(-16, 56) (i8, ptr @_ZTVN5faiss12_GLOBAL__N_118FlatL2WithNormsDisE, i64 16), ptr %12, align 8, !tbaa !4
  %19 = getelementptr inbounds nuw i8, ptr %12, i64 24
  %20 = getelementptr inbounds nuw i8, ptr %0, i64 8
  %21 = load i32, ptr %20, align 8, !tbaa !36
  %22 = sext i32 %21 to i64
  store i64 %22, ptr %19, align 8, !tbaa !69
  %23 = getelementptr inbounds nuw i8, ptr %12, i64 32
  %24 = getelementptr inbounds nuw i8, ptr %0, i64 16
  %25 = load i64, ptr %24, align 8, !tbaa !37
  store i64 %25, ptr %23, align 8, !tbaa !71
  %26 = getelementptr inbounds nuw i8, ptr %12, i64 40
  store ptr null, ptr %26, align 8, !tbaa !72
  %27 = getelementptr inbounds nuw i8, ptr %12, i64 48
  store ptr %14, ptr %27, align 8, !tbaa !73
  %28 = getelementptr inbounds nuw i8, ptr %12, i64 56
  store i64 0, ptr %28, align 8, !tbaa !74
  %29 = getelementptr inbounds nuw i8, ptr %12, i64 64
  store ptr %7, ptr %29, align 8, !tbaa !75
  %30 = getelementptr inbounds nuw i8, ptr %12, i64 72
  store float 0.000000e+00, ptr %30, align 8, !tbaa !76
  br label %33

31:                                               ; preds = %5, %1
  %32 = tail call noundef ptr @_ZNK5faiss9IndexFlat29get_FlatCodesDistanceComputerEv(ptr noundef nonnull align 8 dereferenceable(72) %0)
  br label %33

33:                                               ; preds = %31, %11
  %.0 = phi ptr [ %32, %31 ], [ %12, %11 ]
  ret ptr %.0
}